; Function Attrs: nofree nounwind uwtable
define void @Int_ManPrintInterOne(ptr noundef readonly captures(none) %0, ptr noundef readonly captures(none) %1) local_unnamed_addr #10 {
  %3 = getelementptr inbounds nuw i8, ptr %1, i64 24
  %4 = load i32, ptr %3, align 8, !tbaa !47
  %5 = tail call i32 (ptr, ...) @printf(ptr noundef nonnull dereferenceable(1) @.str.5, i32 noundef %4)
  %6 = load ptr, ptr @stdout, align 8, !tbaa !53
  %7 = getelementptr i8, ptr %0, i64 160
  %.val = load ptr, ptr %7, align 8, !tbaa !46
  %8 = getelementptr i8, ptr %0, i64 172
  %.val4 = load i32, ptr %8, align 4, !tbaa !40
  %.val5 = load i32, ptr %3, align 8, !tbaa !47
  %9 = mul nsw i32 %.val5, %.val4
  %10 = sext i32 %9 to i64
  %11 = getelementptr inbounds i32, ptr %.val, i64 %10
  %12 = getelementptr inbounds nuw i8, ptr %0, i64 144
  %13 = load i32, ptr %12, align 8, !tbaa !39
  %14 = shl nuw i32 1, %13
  %15 = sext i32 %14 to i64
  %16 = lshr i64 %15, 5
  %17 = icmp ult i32 %13, 5
  %18 = zext i1 %17 to i64
  %19 = add nuw nsw i64 %16, %18
  %20 = trunc i64 %19 to i32
  %21 = icmp sgt i32 %20, 0
  br i1 %21, label %.lr.ph19.i, label %Extra_PrintBinary__.exit

.lr.ph19.i:                                       ; preds = %2
  %22 = and i32 %14, 31
  %23 = add nuw nsw i64 %19, 4294967295
  %24 = add nsw i32 %22, -1
  %25 = and i64 %23, 4294967295
  br i1 %17, label %.lr.ph19.split.i, label %.lr.ph.us.i

.lr.ph.us.i:                                      ; preds = %.lr.ph19.i, %select.unfold._crit_edge.us.i
  %indvars.iv.i = phi i64 [ %indvars.iv.next.i, %select.unfold._crit_edge.us.i ], [ %25, %.lr.ph19.i ]
  %26 = getelementptr inbounds nuw i32, ptr %11, i64 %indvars.iv.i
  br label %select.unfold.us.i

select.unfold.us.i:                               ; preds = %select.unfold.us.i, %.lr.ph.us.i
  %.017.us.i = phi i32 [ 31, %.lr.ph.us.i ], [ %31, %select.unfold.us.i ]
  %27 = load i32, ptr %26, align 4, !tbaa !24
  %28 = lshr i32 %27, %.017.us.i
  %29 = and i32 %28, 1
  %30 = or disjoint i32 %29, 48
  %fputc.us.i = tail call i32 @fputc(i32 %30, ptr %6)
  %31 = add nsw i32 %.017.us.i, -1
  %.not.i = icmp eq i32 %.017.us.i, 0
  br i1 %.not.i, label %select.unfold._crit_edge.us.i, label %select.unfold.us.i, !llvm.loop !51

select.unfold._crit_edge.us.i:                    ; preds = %select.unfold.us.i
  %indvars.iv.next.i = add nsw i64 %indvars.iv.i, -1
  %32 = icmp sgt i64 %indvars.iv.i, 0
  br i1 %32, label %.lr.ph.us.i, label %Extra_PrintBinary__.exit, !llvm.loop !52

.lr.ph19.split.i:                                 ; preds = %.lr.ph19.i, %select.unfold._crit_edge.i
  %indvars.iv22.i = phi i64 [ %indvars.iv.next23.i, %select.unfold._crit_edge.i ], [ %25, %.lr.ph19.i ]
  %33 = icmp eq i64 %indvars.iv22.i, %25
  %34 = getelementptr inbounds nuw i32, ptr %11, i64 %indvars.iv22.i
  %spec.select = select i1 %33, i32 %24, i32 31
  br label %select.unfold.i

select.unfold.i:                                  ; preds = %.lr.ph19.split.i, %select.unfold.i
  %.017.i = phi i32 [ %39, %select.unfold.i ], [ %spec.select, %.lr.ph19.split.i ]
  %35 = load i32, ptr %34, align 4, !tbaa !24
  %36 = lshr i32 %35, %.017.i
  %37 = and i32 %36, 1
  %38 = or disjoint i32 %37, 48
  %fputc.i = tail call i32 @fputc(i32 %38, ptr %6)
  %39 = add nsw i32 %.017.i, -1
  %40 = icmp sgt i32 %.017.i, 0
  br i1 %40, label %select.unfold.i, label %select.unfold._crit_edge.i, !llvm.loop !51

select.unfold._crit_edge.i:                       ; preds = %select.unfold.i
  %indvars.iv.next23.i = add nsw i64 %indvars.iv22.i, -1
  %41 = icmp sgt i64 %indvars.iv22.i, 0
  br i1 %41, label %.lr.ph19.split.i, label %Extra_PrintBinary__.exit, !llvm.loop !52

Extra_PrintBinary__.exit:                         ; preds = %select.unfold._crit_edge.us.i, %select.unfold._crit_edge.i, %2
  %putchar = tail call i32 @putchar(i32 10)
  ret void
}